target datalayout = "e-m:e-p270:32:32-p271:32:32-p272:64:64-i64:64-i128:128-f80:128-n8:16:32:64-S128"
target triple = "x86_64-pc-linux-gnu"

%"class.clang::ASTNodeKind" = type { i32 }
%"class.clang::SourceLocation" = type { i32 }
%"class.clang::OMPClause" = type { %"class.clang::SourceLocation", %"class.clang::SourceLocation", i32 }

; Function Attrs: mustprogress nounwind uwtable
define linkonce_odr hidden void @_ZN5clang11ASTNodeKindC2ENS0_10NodeKindIdE(ptr noundef nonnull align 4 dereferenceable(4) %0, i32 noundef %1) unnamed_addr #0 comdat align 2 {
  %3 = alloca ptr, align 8
  %4 = alloca i32, align 4
  store ptr %0, ptr %3, align 8
  store i32 %1, ptr %4, align 4
  %5 = load ptr, ptr %3, align 8
  %6 = getelementptr inbounds nuw %"class.clang::ASTNodeKind", ptr %5, i32 0, i32 0
  %7 = load i32, ptr %4, align 4
  store i32 %7, ptr %6, align 4
  ret void
}

; Function Attrs: mustprogress nounwind uwtable
define linkonce_odr hidden noundef i32 @_ZNK5clang9OMPClause13getClauseKindEv(ptr noundef nonnull align 4 dereferenceable(12) %0) #0 comdat align 2 {
  %2 = alloca ptr, align 8
  store ptr %0, ptr %2, align 8
  %3 = load ptr, ptr %2, align 8
  %4 = getelementptr inbounds nuw %"class.clang::OMPClause", ptr %3, i32 0, i32 2
  %5 = load i32, ptr %4, align 4
  ret i32 %5
}

; Function Attrs: mustprogress nounwind uwtable
define dso_local i32 @_ZN5clang11ASTNodeKind11getFromNodeERKNS_9OMPClauseE(ptr noundef nonnull align 4 dereferenceable(12) %0) #0 align 2 {
  %2 = alloca %"class.clang::ASTNodeKind", align 4
  %3 = alloca ptr, align 8
  store ptr %0, ptr %3, align 8
  %4 = load ptr, ptr %3, align 8
  %5 = call noundef i32 @_ZNK5clang9OMPClause13getClauseKindEv(ptr noundef nonnull align 4 dereferenceable(12) %4)
  switch i32 %5, label %117 [
    i32 0, label %6
    i32 1, label %7
    i32 2, label %8
    i32 3, label %9
    i32 4, label %10
    i32 5, label %11
    i32 6, label %12
    i32 7, label %13
    i32 8, label %14
    i32 9, label %15
    i32 10, label %16
    i32 11, label %17
    i32 12, label %18
    i32 13, label %19
    i32 14, label %20
    i32 15, label %21
    i32 16, label %22
    i32 17, label %23
    i32 18, label %24
    i32 19, label %25
    i32 20, label %26
    i32 21, label %27
    i32 22, label %28
    i32 23, label %29
    i32 24, label %30
    i32 25, label %31
    i32 26, label %32
    i32 27, label %33
    i32 28, label %34
    i32 29, label %35
    i32 30, label %36
    i32 31, label %37
    i32 32, label %38
    i32 33, label %39
    i32 34, label %40
    i32 35, label %41
    i32 36, label %42
    i32 37, label %43
    i32 38, label %44
    i32 39, label %45
    i32 40, label %46
    i32 41, label %47
    i32 42, label %48
    i32 43, label %49
    i32 44, label %50
    i32 45, label %51
    i32 46, label %52
    i32 47, label %53
    i32 48, label %54
    i32 49, label %55
    i32 50, label %56
    i32 51, label %57
    i32 52, label %58
    i32 53, label %59
    i32 54, label %60
    i32 55, label %61
    i32 56, label %62
    i32 57, label %63
    i32 58, label %64
    i32 59, label %65
    i32 60, label %66
    i32 61, label %67
    i32 62, label %68
    i32 63, label %69
    i32 64, label %70
    i32 65, label %71
    i32 66, label %72
    i32 67, label %73
    i32 68, label %74
    i32 69, label %75
    i32 70, label %76
    i32 71, label %77
    i32 72, label %78
    i32 73, label %79
    i32 74, label %80
    i32 75, label %81
    i32 76, label %82
    i32 77, label %83
    i32 78, label %84
    i32 79, label %85
    i32 80, label %86
    i32 81, label %87
    i32 82, label %88
    i32 83, label %89
    i32 84, label %90
    i32 85, label %91
    i32 86, label %92
    i32 87, label %93
    i32 88, label %94
    i32 89, label %95
    i32 90, label %96
    i32 91, label %97
    i32 92, label %98
    i32 93, label %99
    i32 94, label %100
    i32 95, label %101
    i32 96, label %102
    i32 97, label %103
    i32 98, label %104
    i32 99, label %105
    i32 100, label %106
    i32 101, label %107
    i32 102, label %108
    i32 103, label %109
    i32 104, label %110
    i32 105, label %111
    i32 106, label %112
    i32 107, label %113
    i32 108, label %114
    i32 109, label %115
    i32 110, label %116
  ]

6:                                                ; preds = %1
  call void @_ZN5clang11ASTNodeKindC2ENS0_10NodeKindIdE(ptr noundef nonnull align 4 dereferenceable(4) %2, i32 noundef 502)
  br label %118

7:                                                ; preds = %1
  call void @_ZN5clang11ASTNodeKindC2ENS0_10NodeKindIdE(ptr noundef nonnull align 4 dereferenceable(4) %2, i32 noundef 503)
  br label %118

8:                                                ; preds = %1
  call void @_ZN5clang11ASTNodeKindC2ENS0_10NodeKindIdE(ptr noundef nonnull align 4 dereferenceable(4) %2, i32 noundef 504)
  br label %118

9:                                                ; preds = %1
  unreachable

10:                                               ; preds = %1
  call void @_ZN5clang11ASTNodeKindC2ENS0_10NodeKindIdE(ptr noundef nonnull align 4 dereferenceable(4) %2, i32 noundef 505)
  br label %118

11:                                               ; preds = %1
  call void @_ZN5clang11ASTNodeKindC2ENS0_10NodeKindIdE(ptr noundef nonnull align 4 dereferenceable(4) %2, i32 noundef 506)
  br label %118

12:                                               ; preds = %1
  call void @_ZN5clang11ASTNodeKindC2ENS0_10NodeKindIdE(ptr noundef nonnull align 4 dereferenceable(4) %2, i32 noundef 507)
  br label %118

13:                                               ; preds = %1
  call void @_ZN5clang11ASTNodeKindC2ENS0_10NodeKindIdE(ptr noundef nonnull align 4 dereferenceable(4) %2, i32 noundef 508)
  br label %118

14:                                               ; preds = %1
  call void @_ZN5clang11ASTNodeKindC2ENS0_10NodeKindIdE(ptr noundef nonnull align 4 dereferenceable(4) %2, i32 noundef 509)
  br label %118

15:                                               ; preds = %1
  unreachable

16:                                               ; preds = %1
  call void @_ZN5clang11ASTNodeKindC2ENS0_10NodeKindIdE(ptr noundef nonnull align 4 dereferenceable(4) %2, i32 noundef 510)
  br label %118

17:                                               ; preds = %1
  call void @_ZN5clang11ASTNodeKindC2ENS0_10NodeKindIdE(ptr noundef nonnull align 4 dereferenceable(4) %2, i32 noundef 511)
  br label %118

18:                                               ; preds = %1
  call void @_ZN5clang11ASTNodeKindC2ENS0_10NodeKindIdE(ptr noundef nonnull align 4 dereferenceable(4) %2, i32 noundef 512)
  br label %118

19:                                               ; preds = %1
  unreachable

20:                                               ; preds = %1
  call void @_ZN5clang11ASTNodeKindC2ENS0_10NodeKindIdE(ptr noundef nonnull align 4 dereferenceable(4) %2, i32 noundef 513)
  br label %118

21:                                               ; preds = %1
  call void @_ZN5clang11ASTNodeKindC2ENS0_10NodeKindIdE(ptr noundef nonnull align 4 dereferenceable(4) %2, i32 noundef 514)
  br label %118

22:                                               ; preds = %1
  call void @_ZN5clang11ASTNodeKindC2ENS0_10NodeKindIdE(ptr noundef nonnull align 4 dereferenceable(4) %2, i32 noundef 515)
  br label %118

23:                                               ; preds = %1
  call void @_ZN5clang11ASTNodeKindC2ENS0_10NodeKindIdE(ptr noundef nonnull align 4 dereferenceable(4) %2, i32 noundef 516)
  br label %118

24:                                               ; preds = %1
  call void @_ZN5clang11ASTNodeKindC2ENS0_10NodeKindIdE(ptr noundef nonnull align 4 dereferenceable(4) %2, i32 noundef 517)
  br label %118

25:                                               ; preds = %1
  call void @_ZN5clang11ASTNodeKindC2ENS0_10NodeKindIdE(ptr noundef nonnull align 4 dereferenceable(4) %2, i32 noundef 518)
  br label %118

26:                                               ; preds = %1
  call void @_ZN5clang11ASTNodeKindC2ENS0_10NodeKindIdE(ptr noundef nonnull align 4 dereferenceable(4) %2, i32 noundef 519)
  br label %118

27:                                               ; preds = %1
  call void @_ZN5clang11ASTNodeKindC2ENS0_10NodeKindIdE(ptr noundef nonnull align 4 dereferenceable(4) %2, i32 noundef 520)
  br label %118

28:                                               ; preds = %1
  call void @_ZN5clang11ASTNodeKindC2ENS0_10NodeKindIdE(ptr noundef nonnull align 4 dereferenceable(4) %2, i32 noundef 521)
  br label %118

29:                                               ; preds = %1
  call void @_ZN5clang11ASTNodeKindC2ENS0_10NodeKindIdE(ptr noundef nonnull align 4 dereferenceable(4) %2, i32 noundef 522)
  br label %118

30:                                               ; preds = %1
  call void @_ZN5clang11ASTNodeKindC2ENS0_10NodeKindIdE(ptr noundef nonnull align 4 dereferenceable(4) %2, i32 noundef 523)
  br label %118

31:                                               ; preds = %1
  call void @_ZN5clang11ASTNodeKindC2ENS0_10NodeKindIdE(ptr noundef nonnull align 4 dereferenceable(4) %2, i32 noundef 524)
  br label %118

32:                                               ; preds = %1
  call void @_ZN5clang11ASTNodeKindC2ENS0_10NodeKindIdE(ptr noundef nonnull align 4 dereferenceable(4) %2, i32 noundef 525)
  br label %118

33:                                               ; preds = %1
  unreachable

34:                                               ; preds = %1
  call void @_ZN5clang11ASTNodeKindC2ENS0_10NodeKindIdE(ptr noundef nonnull align 4 dereferenceable(4) %2, i32 noundef 526)
  br label %118

35:                                               ; preds = %1
  call void @_ZN5clang11ASTNodeKindC2ENS0_10NodeKindIdE(ptr noundef nonnull align 4 dereferenceable(4) %2, i32 noundef 527)
  br label %118

36:                                               ; preds = %1
  call void @_ZN5clang11ASTNodeKindC2ENS0_10NodeKindIdE(ptr noundef nonnull align 4 dereferenceable(4) %2, i32 noundef 528)
  br label %118

37:                                               ; preds = %1
  unreachable

38:                                               ; preds = %1
  call void @_ZN5clang11ASTNodeKindC2ENS0_10NodeKindIdE(ptr noundef nonnull align 4 dereferenceable(4) %2, i32 noundef 529)
  br label %118

39:                                               ; preds = %1
  call void @_ZN5clang11ASTNodeKindC2ENS0_10NodeKindIdE(ptr noundef nonnull align 4 dereferenceable(4) %2, i32 noundef 530)
  br label %118

40:                                               ; preds = %1
  call void @_ZN5clang11ASTNodeKindC2ENS0_10NodeKindIdE(ptr noundef nonnull align 4 dereferenceable(4) %2, i32 noundef 531)
  br label %118

41:                                               ; preds = %1
  call void @_ZN5clang11ASTNodeKindC2ENS0_10NodeKindIdE(ptr noundef nonnull align 4 dereferenceable(4) %2, i32 noundef 532)
  br label %118

42:                                               ; preds = %1
  call void @_ZN5clang11ASTNodeKindC2ENS0_10NodeKindIdE(ptr noundef nonnull align 4 dereferenceable(4) %2, i32 noundef 533)
  br label %118

43:                                               ; preds = %1
  call void @_ZN5clang11ASTNodeKindC2ENS0_10NodeKindIdE(ptr noundef nonnull align 4 dereferenceable(4) %2, i32 noundef 534)
  br label %118

44:                                               ; preds = %1
  call void @_ZN5clang11ASTNodeKindC2ENS0_10NodeKindIdE(ptr noundef nonnull align 4 dereferenceable(4) %2, i32 noundef 535)
  br label %118

45:                                               ; preds = %1
  call void @_ZN5clang11ASTNodeKindC2ENS0_10NodeKindIdE(ptr noundef nonnull align 4 dereferenceable(4) %2, i32 noundef 536)
  br label %118

46:                                               ; preds = %1
  call void @_ZN5clang11ASTNodeKindC2ENS0_10NodeKindIdE(ptr noundef nonnull align 4 dereferenceable(4) %2, i32 noundef 537)
  br label %118

47:                                               ; preds = %1
  call void @_ZN5clang11ASTNodeKindC2ENS0_10NodeKindIdE(ptr noundef nonnull align 4 dereferenceable(4) %2, i32 noundef 538)
  br label %118

48:                                               ; preds = %1
  call void @_ZN5clang11ASTNodeKindC2ENS0_10NodeKindIdE(ptr noundef nonnull align 4 dereferenceable(4) %2, i32 noundef 539)
  br label %118

49:                                               ; preds = %1
  call void @_ZN5clang11ASTNodeKindC2ENS0_10NodeKindIdE(ptr noundef nonnull align 4 dereferenceable(4) %2, i32 noundef 540)
  br label %118

50:                                               ; preds = %1
  call void @_ZN5clang11ASTNodeKindC2ENS0_10NodeKindIdE(ptr noundef nonnull align 4 dereferenceable(4) %2, i32 noundef 541)
  br label %118

51:                                               ; preds = %1
  call void @_ZN5clang11ASTNodeKindC2ENS0_10NodeKindIdE(ptr noundef nonnull align 4 dereferenceable(4) %2, i32 noundef 542)
  br label %118

52:                                               ; preds = %1
  unreachable

53:                                               ; preds = %1
  call void @_ZN5clang11ASTNodeKindC2ENS0_10NodeKindIdE(ptr noundef nonnull align 4 dereferenceable(4) %2, i32 noundef 543)
  br label %118

54:                                               ; preds = %1
  unreachable

55:                                               ; preds = %1
  call void @_ZN5clang11ASTNodeKindC2ENS0_10NodeKindIdE(ptr noundef nonnull align 4 dereferenceable(4) %2, i32 noundef 544)
  br label %118

56:                                               ; preds = %1
  call void @_ZN5clang11ASTNodeKindC2ENS0_10NodeKindIdE(ptr noundef nonnull align 4 dereferenceable(4) %2, i32 noundef 545)
  br label %118

57:                                               ; preds = %1
  call void @_ZN5clang11ASTNodeKindC2ENS0_10NodeKindIdE(ptr noundef nonnull align 4 dereferenceable(4) %2, i32 noundef 546)
  br label %118

58:                                               ; preds = %1
  call void @_ZN5clang11ASTNodeKindC2ENS0_10NodeKindIdE(ptr noundef nonnull align 4 dereferenceable(4) %2, i32 noundef 547)
  br label %118

59:                                               ; preds = %1
  unreachable

60:                                               ; preds = %1
  call void @_ZN5clang11ASTNodeKindC2ENS0_10NodeKindIdE(ptr noundef nonnull align 4 dereferenceable(4) %2, i32 noundef 548)
  br label %118

61:                                               ; preds = %1
  unreachable

62:                                               ; preds = %1
  unreachable

63:                                               ; preds = %1
  call void @_ZN5clang11ASTNodeKindC2ENS0_10NodeKindIdE(ptr noundef nonnull align 4 dereferenceable(4) %2, i32 noundef 549)
  br label %118

64:                                               ; preds = %1
  call void @_ZN5clang11ASTNodeKindC2ENS0_10NodeKindIdE(ptr noundef nonnull align 4 dereferenceable(4) %2, i32 noundef 550)
  br label %118

65:                                               ; preds = %1
  call void @_ZN5clang11ASTNodeKindC2ENS0_10NodeKindIdE(ptr noundef nonnull align 4 dereferenceable(4) %2, i32 noundef 551)
  br label %118

66:                                               ; preds = %1
  call void @_ZN5clang11ASTNodeKindC2ENS0_10NodeKindIdE(ptr noundef nonnull align 4 dereferenceable(4) %2, i32 noundef 552)
  br label %118

67:                                               ; preds = %1
  call void @_ZN5clang11ASTNodeKindC2ENS0_10NodeKindIdE(ptr noundef nonnull align 4 dereferenceable(4) %2, i32 noundef 553)
  br label %118

68:                                               ; preds = %1
  call void @_ZN5clang11ASTNodeKindC2ENS0_10NodeKindIdE(ptr noundef nonnull align 4 dereferenceable(4) %2, i32 noundef 554)
  br label %118

69:                                               ; preds = %1
  call void @_ZN5clang11ASTNodeKindC2ENS0_10NodeKindIdE(ptr noundef nonnull align 4 dereferenceable(4) %2, i32 noundef 555)
  br label %118

70:                                               ; preds = %1
  call void @_ZN5clang11ASTNodeKindC2ENS0_10NodeKindIdE(ptr noundef nonnull align 4 dereferenceable(4) %2, i32 noundef 556)
  br label %118

71:                                               ; preds = %1
  call void @_ZN5clang11ASTNodeKindC2ENS0_10NodeKindIdE(ptr noundef nonnull align 4 dereferenceable(4) %2, i32 noundef 557)
  br label %118

72:                                               ; preds = %1
  unreachable

73:                                               ; preds = %1
  call void @_ZN5clang11ASTNodeKindC2ENS0_10NodeKindIdE(ptr noundef nonnull align 4 dereferenceable(4) %2, i32 noundef 558)
  br label %118

74:                                               ; preds = %1
  call void @_ZN5clang11ASTNodeKindC2ENS0_10NodeKindIdE(ptr noundef nonnull align 4 dereferenceable(4) %2, i32 noundef 559)
  br label %118

75:                                               ; preds = %1
  call void @_ZN5clang11ASTNodeKindC2ENS0_10NodeKindIdE(ptr noundef nonnull align 4 dereferenceable(4) %2, i32 noundef 560)
  br label %118

76:                                               ; preds = %1
  call void @_ZN5clang11ASTNodeKindC2ENS0_10NodeKindIdE(ptr noundef nonnull align 4 dereferenceable(4) %2, i32 noundef 561)
  br label %118

77:                                               ; preds = %1
  call void @_ZN5clang11ASTNodeKindC2ENS0_10NodeKindIdE(ptr noundef nonnull align 4 dereferenceable(4) %2, i32 noundef 562)
  br label %118

78:                                               ; preds = %1
  call void @_ZN5clang11ASTNodeKindC2ENS0_10NodeKindIdE(ptr noundef nonnull align 4 dereferenceable(4) %2, i32 noundef 563)
  br label %118

79:                                               ; preds = %1
  call void @_ZN5clang11ASTNodeKindC2ENS0_10NodeKindIdE(ptr noundef nonnull align 4 dereferenceable(4) %2, i32 noundef 564)
  br label %118

80:                                               ; preds = %1
  call void @_ZN5clang11ASTNodeKindC2ENS0_10NodeKindIdE(ptr noundef nonnull align 4 dereferenceable(4) %2, i32 noundef 565)
  br label %118

81:                                               ; preds = %1
  call void @_ZN5clang11ASTNodeKindC2ENS0_10NodeKindIdE(ptr noundef nonnull align 4 dereferenceable(4) %2, i32 noundef 566)
  br label %118

82:                                               ; preds = %1
  call void @_ZN5clang11ASTNodeKindC2ENS0_10NodeKindIdE(ptr noundef nonnull align 4 dereferenceable(4) %2, i32 noundef 567)
  br label %118

83:                                               ; preds = %1
  call void @_ZN5clang11ASTNodeKindC2ENS0_10NodeKindIdE(ptr noundef nonnull align 4 dereferenceable(4) %2, i32 noundef 568)
  br label %118

84:                                               ; preds = %1
  call void @_ZN5clang11ASTNodeKindC2ENS0_10NodeKindIdE(ptr noundef nonnull align 4 dereferenceable(4) %2, i32 noundef 569)
  br label %118

85:                                               ; preds = %1
  call void @_ZN5clang11ASTNodeKindC2ENS0_10NodeKindIdE(ptr noundef nonnull align 4 dereferenceable(4) %2, i32 noundef 570)
  br label %118

86:                                               ; preds = %1
  call void @_ZN5clang11ASTNodeKindC2ENS0_10NodeKindIdE(ptr noundef nonnull align 4 dereferenceable(4) %2, i32 noundef 571)
  br label %118

87:                                               ; preds = %1
  call void @_ZN5clang11ASTNodeKindC2ENS0_10NodeKindIdE(ptr noundef nonnull align 4 dereferenceable(4) %2, i32 noundef 572)
  br label %118

88:                                               ; preds = %1
  call void @_ZN5clang11ASTNodeKindC2ENS0_10NodeKindIdE(ptr noundef nonnull align 4 dereferenceable(4) %2, i32 noundef 573)
  br label %118

89:                                               ; preds = %1
  call void @_ZN5clang11ASTNodeKindC2ENS0_10NodeKindIdE(ptr noundef nonnull align 4 dereferenceable(4) %2, i32 noundef 574)
  br label %118

90:                                               ; preds = %1
  call void @_ZN5clang11ASTNodeKindC2ENS0_10NodeKindIdE(ptr noundef nonnull align 4 dereferenceable(4) %2, i32 noundef 575)
  br label %118

91:                                               ; preds = %1
  call void @_ZN5clang11ASTNodeKindC2ENS0_10NodeKindIdE(ptr noundef nonnull align 4 dereferenceable(4) %2, i32 noundef 576)
  br label %118

92:                                               ; preds = %1
  call void @_ZN5clang11ASTNodeKindC2ENS0_10NodeKindIdE(ptr noundef nonnull align 4 dereferenceable(4) %2, i32 noundef 577)
  br label %118

93:                                               ; preds = %1
  call void @_ZN5clang11ASTNodeKindC2ENS0_10NodeKindIdE(ptr noundef nonnull align 4 dereferenceable(4) %2, i32 noundef 578)
  br label %118

94:                                               ; preds = %1
  call void @_ZN5clang11ASTNodeKindC2ENS0_10NodeKindIdE(ptr noundef nonnull align 4 dereferenceable(4) %2, i32 noundef 579)
  br label %118

95:                                               ; preds = %1
  call void @_ZN5clang11ASTNodeKindC2ENS0_10NodeKindIdE(ptr noundef nonnull align 4 dereferenceable(4) %2, i32 noundef 580)
  br label %118

96:                                               ; preds = %1
  call void @_ZN5clang11ASTNodeKindC2ENS0_10NodeKindIdE(ptr noundef nonnull align 4 dereferenceable(4) %2, i32 noundef 581)
  br label %118

97:                                               ; preds = %1
  call void @_ZN5clang11ASTNodeKindC2ENS0_10NodeKindIdE(ptr noundef nonnull align 4 dereferenceable(4) %2, i32 noundef 582)
  br label %118

98:                                               ; preds = %1
  call void @_ZN5clang11ASTNodeKindC2ENS0_10NodeKindIdE(ptr noundef nonnull align 4 dereferenceable(4) %2, i32 noundef 583)
  br label %118

99:                                               ; preds = %1
  call void @_ZN5clang11ASTNodeKindC2ENS0_10NodeKindIdE(ptr noundef nonnull align 4 dereferenceable(4) %2, i32 noundef 584)
  br label %118

100:                                              ; preds = %1
  call void @_ZN5clang11ASTNodeKindC2ENS0_10NodeKindIdE(ptr noundef nonnull align 4 dereferenceable(4) %2, i32 noundef 585)
  br label %118

101:                                              ; preds = %1
  unreachable

102:                                              ; preds = %1
  call void @_ZN5clang11ASTNodeKindC2ENS0_10NodeKindIdE(ptr noundef nonnull align 4 dereferenceable(4) %2, i32 noundef 586)
  br label %118

103:                                              ; preds = %1
  call void @_ZN5clang11ASTNodeKindC2ENS0_10NodeKindIdE(ptr noundef nonnull align 4 dereferenceable(4) %2, i32 noundef 587)
  br label %118

104:                                              ; preds = %1
  call void @_ZN5clang11ASTNodeKindC2ENS0_10NodeKindIdE(ptr noundef nonnull align 4 dereferenceable(4) %2, i32 noundef 588)
  br label %118

105:                                              ; preds = %1
  call void @_ZN5clang11ASTNodeKindC2ENS0_10NodeKindIdE(ptr noundef nonnull align 4 dereferenceable(4) %2, i32 noundef 589)
  br label %118

106:                                              ; preds = %1
  unreachable

107:                                              ; preds = %1
  unreachable

108:                                              ; preds = %1
  call void @_ZN5clang11ASTNodeKindC2ENS0_10NodeKindIdE(ptr noundef nonnull align 4 dereferenceable(4) %2, i32 noundef 590)
  br label %118

109:                                              ; preds = %1
  call void @_ZN5clang11ASTNodeKindC2ENS0_10NodeKindIdE(ptr noundef nonnull align 4 dereferenceable(4) %2, i32 noundef 591)
  br label %118

110:                                              ; preds = %1
  call void @_ZN5clang11ASTNodeKindC2ENS0_10NodeKindIdE(ptr noundef nonnull align 4 dereferenceable(4) %2, i32 noundef 592)
  br label %118

111:                                              ; preds = %1
  call void @_ZN5clang11ASTNodeKindC2ENS0_10NodeKindIdE(ptr noundef nonnull align 4 dereferenceable(4) %2, i32 noundef 593)
  br label %118

112:                                              ; preds = %1
  call void @_ZN5clang11ASTNodeKindC2ENS0_10NodeKindIdE(ptr noundef nonnull align 4 dereferenceable(4) %2, i32 noundef 594)
  br label %118

113:                                              ; preds = %1
  call void @_ZN5clang11ASTNodeKindC2ENS0_10NodeKindIdE(ptr noundef nonnull align 4 dereferenceable(4) %2, i32 noundef 595)
  br label %118

114:                                              ; preds = %1
  call void @_ZN5clang11ASTNodeKindC2ENS0_10NodeKindIdE(ptr noundef nonnull align 4 dereferenceable(4) %2, i32 noundef 596)
  br label %118

115:                                              ; preds = %1
  unreachable

116:                                              ; preds = %1
  call void @_ZN5clang11ASTNodeKindC2ENS0_10NodeKindIdE(ptr noundef nonnull align 4 dereferenceable(4) %2, i32 noundef 597)
  br label %118

117:                                              ; preds = %1
  unreachable

118:                                              ; preds = %116, %114, %113, %112, %111, %110, %109, %108, %105, %104, %103, %102, %100, %99, %98, %97, %96, %95, %94, %93, %92, %91, %90, %89, %88, %87, %86, %85, %84, %83, %82, %81, %80, %79, %78, %77, %76, %75, %74, %73, %71, %70, %69, %68, %67, %66, %65, %64, %63, %60, %58, %57, %56, %55, %53, %51, %50, %49, %48, %47, %46, %45, %44, %43, %42, %41, %40, %39, %38, %36, %35, %34, %32, %31, %30, %29, %28, %27, %26, %25, %24, %23, %22, %21, %20, %18, %17, %16, %14, %13, %12, %11, %10, %8, %7, %6
  %119 = getelementptr inbounds nuw %"class.clang::ASTNodeKind", ptr %2, i32 0, i32 0
  %120 = load i32, ptr %119, align 4
  ret i32 %120
}