; Function Attrs: mustprogress nofree norecurse nosync nounwind willreturn memory(argmem: read) uwtable
define dso_local noundef i32 @_ZN5clang11ASTNodeKind11getFromNodeERKNS_9OMPClauseE(ptr nocapture noundef nonnull readonly align 4 dereferenceable(12) %0) local_unnamed_addr #0 align 2 {
switch.lookup:
  %1 = getelementptr inbounds nuw i8, ptr %0, i64 8
  %2 = load i32, ptr %1, align 4
  %3 = sext i32 %2 to i64
  %switch.gep = getelementptr inbounds [111 x i32], ptr @switch.table._ZN5clang11ASTNodeKind11getFromNodeERKNS_9OMPClauseE, i64 0, i64 %3
  %switch.load = load i32, ptr %switch.gep, align 4
  ret i32 %switch.load
}